target datalayout = "e-m:e-p270:32:32-p271:32:32-p272:64:64-i64:64-i128:128-f80:128-n8:16:32:64-S128"
target triple = "x86_64-unknown-linux-gnu"

%"class.icu_75::RBBIRuleBuilder" = type { ptr, ptr, ptr, ptr, ptr, %"class.icu_75::UnicodeString", ptr, ptr, ptr, ptr, ptr, ptr, i8, i8, ptr, ptr, ptr, ptr }
%"class.icu_75::UnicodeString" = type { %"class.icu_75::Replaceable", %"union.icu_75::UnicodeString::StackBufferOrFields" }
%"class.icu_75::Replaceable" = type { %"class.icu_75::UObject" }
%"class.icu_75::UObject" = type { ptr }
%"union.icu_75::UnicodeString::StackBufferOrFields" = type { %struct.anon.0, [32 x i8] }
%struct.anon.0 = type { i16, i32, i32, ptr }
%"struct.std::pair" = type { i32, i32 }

; Function Attrs: mustprogress nounwind uwtable
define linkonce_odr void @_ZNSt4pairIiiEC2IiiTnNSt9enable_ifIXaaclsr5_PCCPE22_MoveConstructiblePairIT_T0_EEclsr5_PCCPE30_ImplicitlyMoveConvertiblePairIS3_S4_EEEbE4typeELb1EEEOS3_OS4_(ptr noundef nonnull align 4 dereferenceable(8) %this, ptr noundef nonnull align 4 dereferenceable(4) %__x, ptr noundef nonnull align 4 dereferenceable(4) %__y) unnamed_addr #3 comdat align 2 {
entry:
  %this.addr = alloca ptr, align 8
  %__x.addr = alloca ptr, align 8
  %__y.addr = alloca ptr, align 8
  store ptr %this, ptr %this.addr, align 8
  store ptr %__x, ptr %__x.addr, align 8
  store ptr %__y, ptr %__y.addr, align 8
  %this1 = load ptr, ptr %this.addr, align 8
  %first = getelementptr inbounds %"struct.std::pair", ptr %this1, i32 0, i32 0
  %0 = load ptr, ptr %__x.addr, align 8
  %1 = load i32, ptr %0, align 4
  store i32 %1, ptr %first, align 4
  %second = getelementptr inbounds %"struct.std::pair", ptr %this1, i32 0, i32 1
  %2 = load ptr, ptr %__y.addr, align 8
  %3 = load i32, ptr %2, align 4
  store i32 %3, ptr %second, align 4
  ret void
}

; Function Attrs: mustprogress uwtable
define void @_ZN6icu_7515RBBIRuleBuilder14optimizeTablesEv(ptr noundef nonnull align 8 dereferenceable(192) %this) #0 align 2 {
entry:
  %this.addr = alloca ptr, align 8
  %didSomething = alloca i8, align 1
  %duplPair = alloca %"struct.std::pair", align 4
  %ref.tmp = alloca i32, align 4
  %ref.tmp2 = alloca i32, align 4
  %agg.tmp = alloca %"struct.std::pair", align 4
  store ptr %this, ptr %this.addr, align 8
  %this1 = load ptr, ptr %this.addr, align 8
  br label %do.body

do.body:                                          ; preds = %do.cond, %entry
  store i8 0, ptr %didSomething, align 1
  store i32 3, ptr %ref.tmp, align 4
  store i32 0, ptr %ref.tmp2, align 4
  call void @_ZNSt4pairIiiEC2IiiTnNSt9enable_ifIXaaclsr5_PCCPE22_MoveConstructiblePairIT_T0_EEclsr5_PCCPE30_ImplicitlyMoveConvertiblePairIS3_S4_EEEbE4typeELb1EEEOS3_OS4_(ptr noundef nonnull align 4 dereferenceable(8) %duplPair, ptr noundef nonnull align 4 dereferenceable(4) %ref.tmp, ptr noundef nonnull align 4 dereferenceable(4) %ref.tmp2)
  br label %while.cond

while.cond:                                       ; preds = %while.body, %do.body
  %fForwardTable = getelementptr inbounds %"class.icu_75::RBBIRuleBuilder", ptr %this1, i32 0, i32 16
  %0 = load ptr, ptr %fForwardTable, align 8
  %call = call noundef zeroext i1 @_ZN6icu_7516RBBITableBuilder21findDuplCharClassFromEPSt4pairIiiE(ptr noundef nonnull align 8 dereferenceable(52) %0, ptr noundef %duplPair)
  br i1 %call, label %while.body, label %while.end

while.body:                                       ; preds = %while.cond
  %fSetBuilder = getelementptr inbounds %"class.icu_75::RBBIRuleBuilder", ptr %this1, i32 0, i32 14
  %1 = load ptr, ptr %fSetBuilder, align 8
  call void @llvm.memcpy.p0.p0.i64(ptr align 4 %agg.tmp, ptr align 4 %duplPair, i64 8, i1 false)
  %2 = load i64, ptr %agg.tmp, align 4
  call void @_ZN6icu_7514RBBISetBuilder15mergeCategoriesESt4pairIiiE(ptr noundef nonnull align 8 dereferenceable(53) %1, i64 %2)
  %fForwardTable3 = getelementptr inbounds %"class.icu_75::RBBIRuleBuilder", ptr %this1, i32 0, i32 16
  %3 = load ptr, ptr %fForwardTable3, align 8
  %second = getelementptr inbounds %"struct.std::pair", ptr %duplPair, i32 0, i32 1
  %4 = load i32, ptr %second, align 4
  call void @_ZN6icu_7516RBBITableBuilder12removeColumnEi(ptr noundef nonnull align 8 dereferenceable(52) %3, i32 noundef %4)
  store i8 1, ptr %didSomething, align 1
  br label %while.cond, !llvm.loop !7

while.end:                                        ; preds = %while.cond
  br label %while.cond4

while.cond4:                                      ; preds = %while.body7, %while.end
  %fForwardTable5 = getelementptr inbounds %"class.icu_75::RBBIRuleBuilder", ptr %this1, i32 0, i32 16
  %5 = load ptr, ptr %fForwardTable5, align 8
  %call6 = call noundef i32 @_ZN6icu_7516RBBITableBuilder21removeDuplicateStatesEv(ptr noundef nonnull align 8 dereferenceable(52) %5)
  %cmp = icmp sgt i32 %call6, 0
  br i1 %cmp, label %while.body7, label %while.end8

while.body7:                                      ; preds = %while.cond4
  store i8 1, ptr %didSomething, align 1
  br label %while.cond4, !llvm.loop !8

while.end8:                                       ; preds = %while.cond4
  br label %do.cond

do.cond:                                          ; preds = %while.end8
  %6 = load i8, ptr %didSomething, align 1
  %tobool = trunc i8 %6 to i1
  br i1 %tobool, label %do.body, label %do.end, !llvm.loop !9

do.end:                                           ; preds = %do.cond
  ret void
}

; Function Attrs: mustprogress nounwind uwtable
define internal noundef signext i8 @_ZL9U_FAILURE10UErrorCode(i32 noundef %code) #3 {
entry:
  %code.addr = alloca i32, align 4
  store i32 %code, ptr %code.addr, align 4
  %0 = load i32, ptr %code.addr, align 4
  %cmp = icmp sgt i32 %0, 0
  %conv = zext i1 %cmp to i8
  ret i8 %conv
}

; Function Attrs: mustprogress uwtable
define noundef ptr @_ZN6icu_7515RBBIRuleBuilder5buildER10UErrorCode(ptr noundef nonnull align 8 dereferenceable(192) %this, ptr noundef nonnull align 4 dereferenceable(4) %status) #0 align 2 personality ptr @__gxx_personality_v0 {
entry:
  %retval = alloca ptr, align 8
  %this.addr = alloca ptr, align 8
  %status.addr = alloca ptr, align 8
  %saved-rvalue = alloca ptr, align 8
  %cleanup.cond = alloca i1, align 1
  %exn.slot = alloca ptr, align 8
  %ehselector.slot = alloca i32, align 4
  %data = alloca ptr, align 8
  store ptr %this, ptr %this.addr, align 8
  store ptr %status, ptr %status.addr, align 8
  %this1 = load ptr, ptr %this.addr, align 8
  %0 = load ptr, ptr %status.addr, align 8
  %1 = load i32, ptr %0, align 4
  %call = call noundef signext i8 @_ZL9U_FAILURE10UErrorCode(i32 noundef %1)
  %tobool = icmp ne i8 %call, 0
  br i1 %tobool, label %if.then, label %if.end

if.then:                                          ; preds = %entry
  store ptr null, ptr %retval, align 8
  br label %return

if.end:                                           ; preds = %entry
  %fScanner = getelementptr inbounds %"class.icu_75::RBBIRuleBuilder", ptr %this1, i32 0, i32 6
  %2 = load ptr, ptr %fScanner, align 8
  call void @_ZN6icu_7515RBBIRuleScanner5parseEv(ptr noundef nonnull align 8 dereferenceable(3192) %2)
  %3 = load ptr, ptr %status.addr, align 8
  %4 = load i32, ptr %3, align 4
  %call2 = call noundef signext i8 @_ZL9U_FAILURE10UErrorCode(i32 noundef %4)
  %tobool3 = icmp ne i8 %call2, 0
  br i1 %tobool3, label %if.then4, label %if.end5

if.then4:                                         ; preds = %if.end
  store ptr null, ptr %retval, align 8
  br label %return

if.end5:                                          ; preds = %if.end
  %fSetBuilder = getelementptr inbounds %"class.icu_75::RBBIRuleBuilder", ptr %this1, i32 0, i32 14
  %5 = load ptr, ptr %fSetBuilder, align 8
  call void @_ZN6icu_7514RBBISetBuilder11buildRangesEv(ptr noundef nonnull align 8 dereferenceable(53) %5)
  %call6 = call noundef ptr @_ZN6icu_757UMemorynwEm(i64 noundef 56) #8
  %new.isnull = icmp eq ptr %call6, null
  store i1 false, ptr %cleanup.cond, align 1
  br i1 %new.isnull, label %new.cont, label %new.notnull

new.notnull:                                      ; preds = %if.end5
  store ptr %call6, ptr %saved-rvalue, align 8
  store i1 true, ptr %cleanup.cond, align 1
  %fForwardTree = getelementptr inbounds %"class.icu_75::RBBIRuleBuilder", ptr %this1, i32 0, i32 7
  %6 = load ptr, ptr %status.addr, align 8
  invoke void @_ZN6icu_7516RBBITableBuilderC1EPNS_15RBBIRuleBuilderEPPNS_8RBBINodeER10UErrorCode(ptr noundef nonnull align 8 dereferenceable(52) %call6, ptr noundef %this1, ptr noundef %fForwardTree, ptr noundef nonnull align 4 dereferenceable(4) %6)
          to label %invoke.cont unwind label %lpad

invoke.cont:                                      ; preds = %new.notnull
  br label %new.cont

new.cont:                                         ; preds = %invoke.cont, %if.end5
  %7 = phi ptr [ %call6, %invoke.cont ], [ null, %if.end5 ]
  %fForwardTable = getelementptr inbounds %"class.icu_75::RBBIRuleBuilder", ptr %this1, i32 0, i32 16
  store ptr %7, ptr %fForwardTable, align 8
  %fForwardTable7 = getelementptr inbounds %"class.icu_75::RBBIRuleBuilder", ptr %this1, i32 0, i32 16
  %8 = load ptr, ptr %fForwardTable7, align 8
  %cmp = icmp eq ptr %8, null
  br i1 %cmp, label %if.then8, label %if.end9

if.then8:                                         ; preds = %new.cont
  %9 = load ptr, ptr %status.addr, align 8
  store i32 7, ptr %9, align 4
  store ptr null, ptr %retval, align 8
  br label %return

lpad:                                             ; preds = %new.notnull
  %10 = landingpad { ptr, i32 }
          cleanup
  %11 = extractvalue { ptr, i32 } %10, 0
  store ptr %11, ptr %exn.slot, align 8
  %12 = extractvalue { ptr, i32 } %10, 1
  store i32 %12, ptr %ehselector.slot, align 4
  %cleanup.is_active = load i1, ptr %cleanup.cond, align 1
  br i1 %cleanup.is_active, label %cleanup.action, label %cleanup.done

cleanup.action:                                   ; preds = %lpad
  %13 = load ptr, ptr %saved-rvalue, align 8
  call void @_ZN6icu_757UMemorydlEPv(ptr noundef %13) #8
  br label %cleanup.done

cleanup.done:                                     ; preds = %cleanup.action, %lpad
  br label %eh.resume

if.end9:                                          ; preds = %new.cont
  %fForwardTable10 = getelementptr inbounds %"class.icu_75::RBBIRuleBuilder", ptr %this1, i32 0, i32 16
  %14 = load ptr, ptr %fForwardTable10, align 8
  call void @_ZN6icu_7516RBBITableBuilder17buildForwardTableEv(ptr noundef nonnull align 8 dereferenceable(52) %14)
  call void @_ZN6icu_7515RBBIRuleBuilder14optimizeTablesEv(ptr noundef nonnull align 8 dereferenceable(192) %this1)
  %fForwardTable11 = getelementptr inbounds %"class.icu_75::RBBIRuleBuilder", ptr %this1, i32 0, i32 16
  %15 = load ptr, ptr %fForwardTable11, align 8
  %16 = load ptr, ptr %status.addr, align 8
  call void @_ZN6icu_7516RBBITableBuilder21buildSafeReverseTableER10UErrorCode(ptr noundef nonnull align 8 dereferenceable(52) %15, ptr noundef nonnull align 4 dereferenceable(4) %16)
  %fSetBuilder12 = getelementptr inbounds %"class.icu_75::RBBIRuleBuilder", ptr %this1, i32 0, i32 14
  %17 = load ptr, ptr %fSetBuilder12, align 8
  call void @_ZN6icu_7514RBBISetBuilder9buildTrieEv(ptr noundef nonnull align 8 dereferenceable(53) %17)
  %call13 = call noundef ptr @_ZN6icu_7515RBBIRuleBuilder11flattenDataEv(ptr noundef nonnull align 8 dereferenceable(192) %this1)
  store ptr %call13, ptr %data, align 8
  %18 = load ptr, ptr %status.addr, align 8
  %19 = load i32, ptr %18, align 4
  %call14 = call noundef signext i8 @_ZL9U_FAILURE10UErrorCode(i32 noundef %19)
  %tobool15 = icmp ne i8 %call14, 0
  br i1 %tobool15, label %if.then16, label %if.end17

if.then16:                                        ; preds = %if.end9
  store ptr null, ptr %retval, align 8
  br label %return

if.end17:                                         ; preds = %if.end9
  %20 = load ptr, ptr %data, align 8
  store ptr %20, ptr %retval, align 8
  br label %return

return:                                           ; preds = %if.end17, %if.then16, %if.then8, %if.then4, %if.then
  %21 = load ptr, ptr %retval, align 8
  ret ptr %21

eh.resume:                                        ; preds = %cleanup.done
  %exn = load ptr, ptr %exn.slot, align 8
  %sel = load i32, ptr %ehselector.slot, align 4
  %lpad.val = insertvalue { ptr, i32 } poison, ptr %exn, 0
  %lpad.val18 = insertvalue { ptr, i32 } %lpad.val, i32 %sel, 1
  resume { ptr, i32 } %lpad.val18
}