; Function Attrs: mustprogress uwtable
define noundef ptr @_ZN6icu_7515RBBIRuleBuilder5buildER10UErrorCode(ptr noundef nonnull align 8 dereferenceable(192) %this, ptr noundef nonnull align 4 dereferenceable(4) %status) local_unnamed_addr #0 align 2 personality ptr @__gxx_personality_v0 {
entry:
  %duplPair.i = alloca %"struct.std::pair", align 8
  %0 = load i32, ptr %status, align 4
  %cmp.i = icmp slt i32 %0, 1
  br i1 %cmp.i, label %if.end, label %return

if.end:                                           ; preds = %entry
  %fScanner = getelementptr inbounds i8, ptr %this, i64 104
  %1 = load ptr, ptr %fScanner, align 8
  tail call void @_ZN6icu_7515RBBIRuleScanner5parseEv(ptr noundef nonnull align 8 dereferenceable(3192) %1)
  %2 = load i32, ptr %status, align 4
  %cmp.i6 = icmp slt i32 %2, 1
  br i1 %cmp.i6, label %if.end5, label %return

if.end5:                                          ; preds = %if.end
  %fSetBuilder = getelementptr inbounds i8, ptr %this, i64 160
  %3 = load ptr, ptr %fSetBuilder, align 8
  tail call void @_ZN6icu_7514RBBISetBuilder11buildRangesEv(ptr noundef nonnull align 8 dereferenceable(53) %3)
  %call6 = tail call noundef ptr @_ZN6icu_757UMemorynwEm(i64 noundef 56) #8
  %new.isnull = icmp eq ptr %call6, null
  br i1 %new.isnull, label %if.then8, label %new.notnull

new.notnull:                                      ; preds = %if.end5
  %fForwardTree = getelementptr inbounds i8, ptr %this, i64 112
  invoke void @_ZN6icu_7516RBBITableBuilderC1EPNS_15RBBIRuleBuilderEPPNS_8RBBINodeER10UErrorCode(ptr noundef nonnull align 8 dereferenceable(52) %call6, ptr noundef nonnull %this, ptr noundef nonnull %fForwardTree, ptr noundef nonnull align 4 dereferenceable(4) %status)
          to label %if.end9 unwind label %lpad

if.then8:                                         ; preds = %if.end5
  %fForwardTable11 = getelementptr inbounds i8, ptr %this, i64 176
  store ptr null, ptr %fForwardTable11, align 8
  store i32 7, ptr %status, align 4
  br label %return

lpad:                                             ; preds = %new.notnull
  %4 = landingpad { ptr, i32 }
          cleanup
  tail call void @_ZN6icu_757UMemorydlEPv(ptr noundef nonnull %call6) #8
  resume { ptr, i32 } %4

if.end9:                                          ; preds = %new.notnull
  %fForwardTable = getelementptr inbounds i8, ptr %this, i64 176
  store ptr %call6, ptr %fForwardTable, align 8
  tail call void @_ZN6icu_7516RBBITableBuilder17buildForwardTableEv(ptr noundef nonnull align 8 dereferenceable(52) %call6)
  call void @llvm.lifetime.start.p0(i64 8, ptr nonnull %duplPair.i)
  %second.i.i = getelementptr inbounds i8, ptr %duplPair.i, i64 4
  br label %do.body.i

do.body.i:                                        ; preds = %do.cond.i, %if.end9
  store i32 3, ptr %duplPair.i, align 8
  store i32 0, ptr %second.i.i, align 4
  %5 = load ptr, ptr %fForwardTable, align 8
  %call1.i = call noundef zeroext i1 @_ZN6icu_7516RBBITableBuilder21findDuplCharClassFromEPSt4pairIiiE(ptr noundef nonnull align 8 dereferenceable(52) %5, ptr noundef nonnull %duplPair.i)
  br i1 %call1.i, label %while.body.i, label %while.cond4.i.preheader

while.body.i:                                     ; preds = %do.body.i, %while.body.i
  %6 = load ptr, ptr %fSetBuilder, align 8
  %agg.tmp.sroa.0.0.copyload.i = load i64, ptr %duplPair.i, align 8
  call void @_ZN6icu_7514RBBISetBuilder15mergeCategoriesESt4pairIiiE(ptr noundef nonnull align 8 dereferenceable(53) %6, i64 %agg.tmp.sroa.0.0.copyload.i)
  %7 = load ptr, ptr %fForwardTable, align 8
  %8 = load i32, ptr %second.i.i, align 4
  call void @_ZN6icu_7516RBBITableBuilder12removeColumnEi(ptr noundef nonnull align 8 dereferenceable(52) %7, i32 noundef %8)
  %9 = load ptr, ptr %fForwardTable, align 8
  %call.i = call noundef zeroext i1 @_ZN6icu_7516RBBITableBuilder21findDuplCharClassFromEPSt4pairIiiE(ptr noundef nonnull align 8 dereferenceable(52) %9, ptr noundef nonnull %duplPair.i)
  br i1 %call.i, label %while.body.i, label %while.cond4.i.preheader, !llvm.loop !7

while.cond4.i.preheader:                          ; preds = %while.body.i, %do.body.i
  br label %while.cond4.i

while.cond4.i:                                    ; preds = %while.cond4.i.preheader, %while.cond4.i
  %didSomething.1.i = phi i1 [ true, %while.cond4.i ], [ %call1.i, %while.cond4.i.preheader ]
  %10 = load ptr, ptr %fForwardTable, align 8
  %call6.i = call noundef i32 @_ZN6icu_7516RBBITableBuilder21removeDuplicateStatesEv(ptr noundef nonnull align 8 dereferenceable(52) %10)
  %cmp.i8 = icmp sgt i32 %call6.i, 0
  br i1 %cmp.i8, label %while.cond4.i, label %do.cond.i, !llvm.loop !8

do.cond.i:                                        ; preds = %while.cond4.i
  br i1 %didSomething.1.i, label %do.body.i, label %_ZN6icu_7515RBBIRuleBuilder14optimizeTablesEv.exit, !llvm.loop !9

_ZN6icu_7515RBBIRuleBuilder14optimizeTablesEv.exit: ; preds = %do.cond.i
  call void @llvm.lifetime.end.p0(i64 8, ptr nonnull %duplPair.i)
  %11 = load ptr, ptr %fForwardTable, align 8
  call void @_ZN6icu_7516RBBITableBuilder21buildSafeReverseTableER10UErrorCode(ptr noundef nonnull align 8 dereferenceable(52) %11, ptr noundef nonnull align 4 dereferenceable(4) %status)
  %12 = load ptr, ptr %fSetBuilder, align 8
  call void @_ZN6icu_7514RBBISetBuilder9buildTrieEv(ptr noundef nonnull align 8 dereferenceable(53) %12)
  %call13 = call noundef ptr @_ZN6icu_7515RBBIRuleBuilder11flattenDataEv(ptr noundef nonnull align 8 dereferenceable(192) %this)
  %13 = load i32, ptr %status, align 4
  %cmp.i9 = icmp slt i32 %13, 1
  %call13. = select i1 %cmp.i9, ptr %call13, ptr null
  br label %return

return:                                           ; preds = %_ZN6icu_7515RBBIRuleBuilder14optimizeTablesEv.exit, %if.end, %entry, %if.then8
  %retval.0 = phi ptr [ null, %if.then8 ], [ null, %entry ], [ null, %if.end ], [ %call13., %_ZN6icu_7515RBBIRuleBuilder14optimizeTablesEv.exit ]
  ret ptr %retval.0
}